target datalayout = "e-m:e-p270:32:32-p271:32:32-p272:64:64-i64:64-i128:128-f80:128-n8:16:32:64-S128"
target triple = "x86_64-pc-linux-gnu"

%"struct.std::_Rb_tree_header" = type { %"struct.std::_Rb_tree_node_base", i64 }
%"struct.std::_Rb_tree_node_base" = type { i32, ptr, ptr, ptr }
%class.FactMgr = type { %"class.std::map.53", %"class.std::map.53", %"class.std::map.61", %"class.std::map.61", %"class.std::map.66", %"class.std::map.66", %"class.std::map.71", %"class.std::vector.76", %"class.std::vector.81", ptr }
%"class.std::map.53" = type { %"class.std::_Rb_tree.54" }
%"class.std::_Rb_tree.54" = type { %"struct.std::_Rb_tree<const Statement *, std::pair<const Statement *const, std::vector<const Fact *>>, std::_Select1st<std::pair<const Statement *const, std::vector<const Fact *>>>, std::less<const Statement *>>::_Rb_tree_impl" }
%"struct.std::_Rb_tree<const Statement *, std::pair<const Statement *const, std::vector<const Fact *>>, std::_Select1st<std::pair<const Statement *const, std::vector<const Fact *>>>, std::less<const Statement *>>::_Rb_tree_impl" = type { %"struct.std::_Rb_tree_key_compare.58", %"struct.std::_Rb_tree_header" }
%"struct.std::_Rb_tree_key_compare.58" = type { %"struct.std::less.59" }
%"struct.std::less.59" = type { i8 }
%"class.std::map.61" = type { %"class.std::_Rb_tree.62" }
%"class.std::_Rb_tree.62" = type { %"struct.std::_Rb_tree<const Statement *, std::pair<const Statement *const, std::vector<Fact *>>, std::_Select1st<std::pair<const Statement *const, std::vector<Fact *>>>, std::less<const Statement *>>::_Rb_tree_impl" }
%"struct.std::_Rb_tree<const Statement *, std::pair<const Statement *const, std::vector<Fact *>>, std::_Select1st<std::pair<const Statement *const, std::vector<Fact *>>>, std::less<const Statement *>>::_Rb_tree_impl" = type { %"struct.std::_Rb_tree_key_compare.58", %"struct.std::_Rb_tree_header" }
%"class.std::map.66" = type { %"class.std::_Rb_tree.67" }
%"class.std::_Rb_tree.67" = type { %"struct.std::_Rb_tree<const Statement *, std::pair<const Statement *const, Effect>, std::_Select1st<std::pair<const Statement *const, Effect>>, std::less<const Statement *>>::_Rb_tree_impl" }
%"struct.std::_Rb_tree<const Statement *, std::pair<const Statement *const, Effect>, std::_Select1st<std::pair<const Statement *const, Effect>>, std::less<const Statement *>>::_Rb_tree_impl" = type { %"struct.std::_Rb_tree_key_compare.58", %"struct.std::_Rb_tree_header" }
%"class.std::map.71" = type { %"class.std::_Rb_tree.72" }
%"class.std::_Rb_tree.72" = type { %"struct.std::_Rb_tree<const Statement *, std::pair<const Statement *const, bool>, std::_Select1st<std::pair<const Statement *const, bool>>, std::less<const Statement *>>::_Rb_tree_impl" }
%"struct.std::_Rb_tree<const Statement *, std::pair<const Statement *const, bool>, std::_Select1st<std::pair<const Statement *const, bool>>, std::less<const Statement *>>::_Rb_tree_impl" = type { %"struct.std::_Rb_tree_key_compare.58", %"struct.std::_Rb_tree_header" }
%"class.std::vector.76" = type { %"struct.std::_Vector_base.77" }
%"struct.std::_Vector_base.77" = type { %"struct.std::_Vector_base<const CFGEdge *, std::allocator<const CFGEdge *>>::_Vector_impl" }
%"struct.std::_Vector_base<const CFGEdge *, std::allocator<const CFGEdge *>>::_Vector_impl" = type { %"struct.std::_Vector_base<const CFGEdge *, std::allocator<const CFGEdge *>>::_Vector_impl_data" }
%"struct.std::_Vector_base<const CFGEdge *, std::allocator<const CFGEdge *>>::_Vector_impl_data" = type { ptr, ptr, ptr }
%"class.std::vector.81" = type { %"struct.std::_Vector_base.82" }
%"struct.std::_Vector_base.82" = type { %"struct.std::_Vector_base<const Fact *, std::allocator<const Fact *>>::_Vector_impl" }
%"struct.std::_Vector_base<const Fact *, std::allocator<const Fact *>>::_Vector_impl" = type { %"struct.std::_Vector_base<const Fact *, std::allocator<const Fact *>>::_Vector_impl_data" }
%"struct.std::_Vector_base<const Fact *, std::allocator<const Fact *>>::_Vector_impl_data" = type { ptr, ptr, ptr }
%class.Statement = type { ptr, i32, i32, ptr, ptr }
%class.CFGEdge = type <{ ptr, ptr, ptr, i8, i8, [6 x i8] }>

; Function Attrs: mustprogress nounwind uwtable
define linkonce_odr dso_local noundef nonnull align 8 dereferenceable(8) ptr @_ZNSt6vectorIPK7CFGEdgeSaIS2_EEixEm(ptr noundef nonnull align 8 dereferenceable(24) %0, i64 noundef %1) #4 comdat align 2 {
  %3 = alloca ptr, align 8
  %4 = alloca i64, align 8
  store ptr %0, ptr %3, align 8
  store i64 %1, ptr %4, align 8
  %5 = load ptr, ptr %3, align 8
  %6 = getelementptr inbounds %"struct.std::_Vector_base.77", ptr %5, i32 0, i32 0
  %7 = getelementptr inbounds %"struct.std::_Vector_base<const CFGEdge *, std::allocator<const CFGEdge *>>::_Vector_impl_data", ptr %6, i32 0, i32 0
  %8 = load ptr, ptr %7, align 8
  %9 = load i64, ptr %4, align 8
  %10 = getelementptr inbounds ptr, ptr %8, i64 %9
  ret ptr %10
}

; Function Attrs: mustprogress nounwind uwtable
define linkonce_odr dso_local noundef i64 @_ZNKSt6vectorIPK7CFGEdgeSaIS2_EE4sizeEv(ptr noundef nonnull align 8 dereferenceable(24) %0) #4 comdat align 2 {
  %2 = alloca ptr, align 8
  store ptr %0, ptr %2, align 8
  %3 = load ptr, ptr %2, align 8
  %4 = getelementptr inbounds %"struct.std::_Vector_base.77", ptr %3, i32 0, i32 0
  %5 = getelementptr inbounds %"struct.std::_Vector_base<const CFGEdge *, std::allocator<const CFGEdge *>>::_Vector_impl_data", ptr %4, i32 0, i32 1
  %6 = load ptr, ptr %5, align 8
  %7 = getelementptr inbounds %"struct.std::_Vector_base.77", ptr %3, i32 0, i32 0
  %8 = getelementptr inbounds %"struct.std::_Vector_base<const CFGEdge *, std::allocator<const CFGEdge *>>::_Vector_impl_data", ptr %7, i32 0, i32 0
  %9 = load ptr, ptr %8, align 8
  %10 = ptrtoint ptr %6 to i64
  %11 = ptrtoint ptr %9 to i64
  %12 = sub i64 %10, %11
  %13 = sdiv exact i64 %12, 8
  ret i64 %13
}

; Function Attrs: mustprogress uwtable
define dso_local noundef ptr @_ZN16VariableSelector21expand_block_for_gotoEP5BlockRK9CGContext(ptr noundef %0, ptr noundef nonnull align 8 dereferenceable(216) %1) #5 align 2 {
  %3 = alloca ptr, align 8
  %4 = alloca ptr, align 8
  %5 = alloca ptr, align 8
  %6 = alloca i64, align 8
  %7 = alloca ptr, align 8
  store ptr %0, ptr %3, align 8
  store ptr %1, ptr %4, align 8
  %8 = load ptr, ptr %4, align 8
  %9 = call noundef ptr @_Z12get_fact_mgrPK9CGContext(ptr noundef %8)
  store ptr %9, ptr %5, align 8
  br label %10

10:                                               ; preds = %70, %2
  store i64 0, ptr %6, align 8
  br label %11

11:                                               ; preds = %60, %10
  %12 = load i64, ptr %6, align 8
  %13 = load ptr, ptr %5, align 8
  %14 = getelementptr inbounds %class.FactMgr, ptr %13, i32 0, i32 7
  %15 = call noundef i64 @_ZNKSt6vectorIPK7CFGEdgeSaIS2_EE4sizeEv(ptr noundef nonnull align 8 dereferenceable(24) %14) #3
  %16 = icmp ult i64 %12, %15
  br i1 %16, label %17, label %63

17:                                               ; preds = %11
  %18 = load ptr, ptr %5, align 8
  %19 = getelementptr inbounds %class.FactMgr, ptr %18, i32 0, i32 7
  %20 = load i64, ptr %6, align 8
  %21 = call noundef nonnull align 8 dereferenceable(8) ptr @_ZNSt6vectorIPK7CFGEdgeSaIS2_EEixEm(ptr noundef nonnull align 8 dereferenceable(24) %19, i64 noundef %20) #3
  %22 = load ptr, ptr %21, align 8
  store ptr %22, ptr %7, align 8
  %23 = load ptr, ptr %7, align 8
  %24 = getelementptr inbounds %class.CFGEdge, ptr %23, i32 0, i32 1
  %25 = load ptr, ptr %24, align 8
  %26 = getelementptr inbounds %class.Statement, ptr %25, i32 0, i32 1
  %27 = load i32, ptr %26, align 8
  %28 = icmp eq i32 %27, 8
  br i1 %28, label %29, label %59

29:                                               ; preds = %17
  %30 = load ptr, ptr %3, align 8
  %31 = load ptr, ptr %7, align 8
  %32 = getelementptr inbounds %class.CFGEdge, ptr %31, i32 0, i32 2
  %33 = load ptr, ptr %32, align 8
  %34 = call noundef zeroext i1 @_ZNK9Statement13contains_stmtEPKS_(ptr noundef nonnull align 8 dereferenceable(32) %30, ptr noundef %33)
  br i1 %34, label %35, label %59

35:                                               ; preds = %29
  %36 = load ptr, ptr %3, align 8
  %37 = load ptr, ptr %7, align 8
  %38 = getelementptr inbounds %class.CFGEdge, ptr %37, i32 0, i32 1
  %39 = load ptr, ptr %38, align 8
  %40 = call noundef zeroext i1 @_ZNK9Statement13contains_stmtEPKS_(ptr noundef nonnull align 8 dereferenceable(32) %36, ptr noundef %39)
  br i1 %40, label %59, label %41

41:                                               ; preds = %35
  br label %42

42:                                               ; preds = %54, %41
  %43 = load ptr, ptr %3, align 8
  %44 = icmp ne ptr %43, null
  br i1 %44, label %45, label %52

45:                                               ; preds = %42
  %46 = load ptr, ptr %3, align 8
  %47 = load ptr, ptr %7, align 8
  %48 = getelementptr inbounds %class.CFGEdge, ptr %47, i32 0, i32 1
  %49 = load ptr, ptr %48, align 8
  %50 = call noundef zeroext i1 @_ZNK9Statement13contains_stmtEPKS_(ptr noundef nonnull align 8 dereferenceable(32) %46, ptr noundef %49)
  %51 = xor i1 %50, true
  br label %52

52:                                               ; preds = %45, %42
  %53 = phi i1 [ false, %42 ], [ %51, %45 ]
  br i1 %53, label %54, label %58

54:                                               ; preds = %52
  %55 = load ptr, ptr %3, align 8
  %56 = getelementptr inbounds %class.Statement, ptr %55, i32 0, i32 4
  %57 = load ptr, ptr %56, align 8
  store ptr %57, ptr %3, align 8
  br label %42, !llvm.loop !24

58:                                               ; preds = %52
  br label %63

59:                                               ; preds = %35, %29, %17
  br label %60

60:                                               ; preds = %59
  %61 = load i64, ptr %6, align 8
  %62 = add i64 %61, 1
  store i64 %62, ptr %6, align 8
  br label %11, !llvm.loop !25

63:                                               ; preds = %58, %11
  %64 = load i64, ptr %6, align 8
  %65 = load ptr, ptr %5, align 8
  %66 = getelementptr inbounds %class.FactMgr, ptr %65, i32 0, i32 7
  %67 = call noundef i64 @_ZNKSt6vectorIPK7CFGEdgeSaIS2_EE4sizeEv(ptr noundef nonnull align 8 dereferenceable(24) %66) #3
  %68 = icmp eq i64 %64, %67
  br i1 %68, label %69, label %70

69:                                               ; preds = %63
  br label %71

70:                                               ; preds = %63
  br label %10, !llvm.loop !26

71:                                               ; preds = %69
  %72 = load ptr, ptr %3, align 8
  ret ptr %72
}