; Function Attrs: mustprogress uwtable
define dso_local noundef ptr @_ZN16VariableSelector21expand_block_for_gotoEP5BlockRK9CGContext(ptr noundef %0, ptr noundef nonnull align 8 dereferenceable(216) %1) local_unnamed_addr #4 align 2 {
  %3 = tail call noundef ptr @_Z12get_fact_mgrPK9CGContext(ptr noundef nonnull %1)
  %4 = getelementptr inbounds i8, ptr %3, i64 336
  %5 = getelementptr inbounds i8, ptr %3, i64 344
  %.pre = load ptr, ptr %5, align 8
  %.pre32 = load ptr, ptr %4, align 8
  br label %6

6:                                                ; preds = %.critedge, %2
  %7 = phi ptr [ %.pre32, %2 ], [ %38, %.critedge ]
  %8 = phi ptr [ %.pre, %2 ], [ %39, %.critedge ]
  %.0 = phi ptr [ %0, %2 ], [ %.2, %.critedge ]
  %.not27 = icmp eq ptr %8, %7
  br i1 %.not27, label %.critedge, label %.lr.ph

.lr.ph:                                           ; preds = %6, %29
  %9 = phi ptr [ %32, %29 ], [ %7, %6 ]
  %.01725 = phi i64 [ %30, %29 ], [ 0, %6 ]
  %10 = getelementptr inbounds ptr, ptr %9, i64 %.01725
  %11 = load ptr, ptr %10, align 8
  %12 = getelementptr inbounds i8, ptr %11, i64 8
  %13 = load ptr, ptr %12, align 8
  %14 = getelementptr inbounds i8, ptr %13, i64 8
  %15 = load i32, ptr %14, align 8
  %16 = icmp eq i32 %15, 8
  br i1 %16, label %17, label %29

17:                                               ; preds = %.lr.ph
  %18 = getelementptr inbounds i8, ptr %11, i64 16
  %19 = load ptr, ptr %18, align 8
  %20 = tail call noundef zeroext i1 @_ZNK9Statement13contains_stmtEPKS_(ptr noundef nonnull align 8 dereferenceable(32) %.0, ptr noundef %19)
  br i1 %20, label %21, label %29

21:                                               ; preds = %17
  %22 = load ptr, ptr %12, align 8
  %23 = tail call noundef zeroext i1 @_ZNK9Statement13contains_stmtEPKS_(ptr noundef nonnull align 8 dereferenceable(32) %.0, ptr noundef %22)
  br i1 %23, label %29, label %.preheader

.preheader:                                       ; preds = %21, %26
  %.126 = phi ptr [ %28, %26 ], [ %.0, %21 ]
  %24 = load ptr, ptr %12, align 8
  %25 = tail call noundef zeroext i1 @_ZNK9Statement13contains_stmtEPKS_(ptr noundef nonnull align 8 dereferenceable(32) %.126, ptr noundef %24)
  br i1 %25, label %.critedge.loopexit, label %26

26:                                               ; preds = %.preheader
  %27 = getelementptr inbounds i8, ptr %.126, i64 24
  %28 = load ptr, ptr %27, align 8
  %.not = icmp eq ptr %28, null
  br i1 %.not, label %.critedge.loopexit, label %.preheader, !llvm.loop !27

29:                                               ; preds = %.lr.ph, %17, %21
  %30 = add nuw i64 %.01725, 1
  %31 = load ptr, ptr %5, align 8
  %32 = load ptr, ptr %4, align 8
  %33 = ptrtoint ptr %31 to i64
  %34 = ptrtoint ptr %32 to i64
  %35 = sub i64 %33, %34
  %36 = ashr exact i64 %35, 3
  %37 = icmp ult i64 %30, %36
  br i1 %37, label %.lr.ph, label %.critedge, !llvm.loop !28

.critedge.loopexit:                               ; preds = %26, %.preheader
  %.2.ph = phi ptr [ %.126, %.preheader ], [ null, %26 ]
  %.pre33 = load ptr, ptr %5, align 8
  %.pre34 = load ptr, ptr %4, align 8
  br label %.critedge

.critedge:                                        ; preds = %29, %.critedge.loopexit, %6
  %38 = phi ptr [ %7, %6 ], [ %.pre34, %.critedge.loopexit ], [ %32, %29 ]
  %39 = phi ptr [ %7, %6 ], [ %.pre33, %.critedge.loopexit ], [ %31, %29 ]
  %.01723 = phi i64 [ 0, %6 ], [ %.01725, %.critedge.loopexit ], [ %30, %29 ]
  %.2 = phi ptr [ %.0, %6 ], [ %.2.ph, %.critedge.loopexit ], [ %.0, %29 ]
  %40 = ptrtoint ptr %39 to i64
  %41 = ptrtoint ptr %38 to i64
  %42 = sub i64 %40, %41
  %43 = ashr exact i64 %42, 3
  %44 = icmp eq i64 %.01723, %43
  br i1 %44, label %45, label %6, !llvm.loop !29

45:                                               ; preds = %.critedge
  ret ptr %.2
}